target datalayout = "e-m:e-p270:32:32-p271:32:32-p272:64:64-i64:64-i128:128-f80:128-n8:16:32:64-S128"
target triple = "x86_64-pc-linux-gnu"

%"class.duckdb_re2::Regexp::Walker" = type { ptr, %"class.std::stack", i8, i32 }
%"class.std::stack" = type { %"class.std::deque" }
%"class.std::deque" = type { %"class.std::_Deque_base" }
%"class.std::_Deque_base" = type { %"struct.std::_Deque_base<duckdb_re2::WalkState<int>, std::allocator<duckdb_re2::WalkState<int>>>::_Deque_impl" }
%"struct.std::_Deque_base<duckdb_re2::WalkState<int>, std::allocator<duckdb_re2::WalkState<int>>>::_Deque_impl" = type { %"struct.std::_Deque_base<duckdb_re2::WalkState<int>, std::allocator<duckdb_re2::WalkState<int>>>::_Deque_impl_data" }
%"struct.std::_Deque_base<duckdb_re2::WalkState<int>, std::allocator<duckdb_re2::WalkState<int>>>::_Deque_impl_data" = type { ptr, i64, %"struct.std::_Deque_iterator", %"struct.std::_Deque_iterator" }
%"struct.std::_Deque_iterator" = type { ptr, ptr, ptr, ptr }
%"class.duckdb_re2::CaptureNamesWalker" = type { %"class.duckdb_re2::Regexp::Walker", ptr }

; Function Attrs: mustprogress nounwind uwtable
define linkonce_odr hidden void @_ZNSt15_Deque_iteratorIN10duckdb_re29WalkStateIiEERS2_PS2_EC2Ev(ptr noundef nonnull align 8 dereferenceable(32) %0) unnamed_addr #0 comdat align 2 {
  %2 = alloca ptr, align 8
  store ptr %0, ptr %2, align 8, !tbaa !289
  %3 = load ptr, ptr %2, align 8
  %4 = getelementptr inbounds nuw %"struct.std::_Deque_iterator", ptr %3, i32 0, i32 0
  store ptr null, ptr %4, align 8, !tbaa !291
  %5 = getelementptr inbounds nuw %"struct.std::_Deque_iterator", ptr %3, i32 0, i32 1
  store ptr null, ptr %5, align 8, !tbaa !292
  %6 = getelementptr inbounds nuw %"struct.std::_Deque_iterator", ptr %3, i32 0, i32 2
  store ptr null, ptr %6, align 8, !tbaa !293
  %7 = getelementptr inbounds nuw %"struct.std::_Deque_iterator", ptr %3, i32 0, i32 3
  store ptr null, ptr %7, align 8, !tbaa !294
  ret void
}

; Function Attrs: mustprogress nounwind uwtable
define linkonce_odr hidden void @_ZNSt15__new_allocatorIN10duckdb_re29WalkStateIiEEEC2Ev(ptr noundef nonnull align 1 dereferenceable(1) %0) unnamed_addr #0 comdat align 2 {
  %2 = alloca ptr, align 8
  store ptr %0, ptr %2, align 8, !tbaa !283
  ret void
}

; Function Attrs: mustprogress nounwind uwtable
define linkonce_odr hidden void @_ZNSt11_Deque_baseIN10duckdb_re29WalkStateIiEESaIS2_EE16_Deque_impl_dataC2Ev(ptr noundef nonnull align 8 dereferenceable(80) %0) unnamed_addr #0 comdat align 2 {
  %2 = alloca ptr, align 8
  store ptr %0, ptr %2, align 8, !tbaa !287
  %3 = load ptr, ptr %2, align 8
  %4 = getelementptr inbounds nuw %"struct.std::_Deque_base<duckdb_re2::WalkState<int>, std::allocator<duckdb_re2::WalkState<int>>>::_Deque_impl_data", ptr %3, i32 0, i32 0
  store ptr null, ptr %4, align 8, !tbaa !277
  %5 = getelementptr inbounds nuw %"struct.std::_Deque_base<duckdb_re2::WalkState<int>, std::allocator<duckdb_re2::WalkState<int>>>::_Deque_impl_data", ptr %3, i32 0, i32 1
  store i64 0, ptr %5, align 8, !tbaa !276
  %6 = getelementptr inbounds nuw %"struct.std::_Deque_base<duckdb_re2::WalkState<int>, std::allocator<duckdb_re2::WalkState<int>>>::_Deque_impl_data", ptr %3, i32 0, i32 2
  call void @_ZNSt15_Deque_iteratorIN10duckdb_re29WalkStateIiEERS2_PS2_EC2Ev(ptr noundef nonnull align 8 dereferenceable(32) %6) #18
  %7 = getelementptr inbounds nuw %"struct.std::_Deque_base<duckdb_re2::WalkState<int>, std::allocator<duckdb_re2::WalkState<int>>>::_Deque_impl_data", ptr %3, i32 0, i32 3
  call void @_ZNSt15_Deque_iteratorIN10duckdb_re29WalkStateIiEERS2_PS2_EC2Ev(ptr noundef nonnull align 8 dereferenceable(32) %7) #18
  ret void
}

; Function Attrs: mustprogress nounwind uwtable
define linkonce_odr hidden void @_ZNSaIN10duckdb_re29WalkStateIiEEEC2Ev(ptr noundef nonnull align 1 dereferenceable(1) %0) unnamed_addr #0 comdat align 2 {
  %2 = alloca ptr, align 8
  store ptr %0, ptr %2, align 8, !tbaa !285
  %3 = load ptr, ptr %2, align 8
  call void @_ZNSt15__new_allocatorIN10duckdb_re29WalkStateIiEEEC2Ev(ptr noundef nonnull align 1 dereferenceable(1) %3) #18
  ret void
}

; Function Attrs: mustprogress nounwind uwtable
define linkonce_odr hidden void @_ZNSt15__new_allocatorIN10duckdb_re29WalkStateIiEEED2Ev(ptr noundef nonnull align 1 dereferenceable(1) %0) unnamed_addr #0 comdat align 2 {
  %2 = alloca ptr, align 8
  store ptr %0, ptr %2, align 8, !tbaa !283
  ret void
}

; Function Attrs: mustprogress nounwind uwtable
define linkonce_odr hidden void @_ZNSt11_Deque_baseIN10duckdb_re29WalkStateIiEESaIS2_EE11_Deque_implC2Ev(ptr noundef nonnull align 8 dereferenceable(80) %0) unnamed_addr #0 comdat align 2 {
  %2 = alloca ptr, align 8
  store ptr %0, ptr %2, align 8, !tbaa !274
  %3 = load ptr, ptr %2, align 8
  call void @_ZNSaIN10duckdb_re29WalkStateIiEEEC2Ev(ptr noundef nonnull align 1 dereferenceable(1) %3) #18
  call void @_ZNSt11_Deque_baseIN10duckdb_re29WalkStateIiEESaIS2_EE16_Deque_impl_dataC2Ev(ptr noundef nonnull align 8 dereferenceable(80) %3) #18
  ret void
}

; Function Attrs: mustprogress uwtable
define linkonce_odr hidden void @_ZNSt11_Deque_baseIN10duckdb_re29WalkStateIiEESaIS2_EEC2Ev(ptr noundef nonnull align 8 dereferenceable(80) %0) unnamed_addr #4 comdat align 2 personality ptr @__gxx_personality_v0 {
  %2 = alloca ptr, align 8
  %3 = alloca ptr, align 8
  %4 = alloca i32, align 4
  store ptr %0, ptr %2, align 8, !tbaa !272
  %5 = load ptr, ptr %2, align 8
  %6 = getelementptr inbounds nuw %"class.std::_Deque_base", ptr %5, i32 0, i32 0
  call void @_ZNSt11_Deque_baseIN10duckdb_re29WalkStateIiEESaIS2_EE11_Deque_implC2Ev(ptr noundef nonnull align 8 dereferenceable(80) %6) #18
  invoke void @_ZNSt11_Deque_baseIN10duckdb_re29WalkStateIiEESaIS2_EE17_M_initialize_mapEm(ptr noundef nonnull align 8 dereferenceable(80) %5, i64 noundef 0)
          to label %7 unwind label %8

7:                                                ; preds = %1
  ret void

8:                                                ; preds = %1
  %9 = landingpad { ptr, i32 }
          cleanup
  %10 = extractvalue { ptr, i32 } %9, 0
  store ptr %10, ptr %3, align 8
  %11 = extractvalue { ptr, i32 } %9, 1
  store i32 %11, ptr %4, align 4
  call void @_ZNSt15__new_allocatorIN10duckdb_re29WalkStateIiEEED2Ev(ptr noundef nonnull align 8 dereferenceable(80) %6) #18
  br label %12

12:                                               ; preds = %8
  %13 = load ptr, ptr %3, align 8
  %14 = load i32, ptr %4, align 4
  %15 = insertvalue { ptr, i32 } poison, ptr %13, 0
  %16 = insertvalue { ptr, i32 } %15, i32 %14, 1
  resume { ptr, i32 } %16
}

; Function Attrs: mustprogress uwtable
define linkonce_odr hidden void @_ZNSt5dequeIN10duckdb_re29WalkStateIiEESaIS2_EEC2Ev(ptr noundef nonnull align 8 dereferenceable(80) %0) unnamed_addr #4 comdat align 2 {
  %2 = alloca ptr, align 8
  store ptr %0, ptr %2, align 8, !tbaa !270
  %3 = load ptr, ptr %2, align 8
  call void @_ZNSt11_Deque_baseIN10duckdb_re29WalkStateIiEESaIS2_EEC2Ev(ptr noundef nonnull align 8 dereferenceable(80) %3)
  ret void
}

; Function Attrs: mustprogress uwtable
define linkonce_odr hidden void @_ZNSt5stackIN10duckdb_re29WalkStateIiEESt5dequeIS2_SaIS2_EEEC2IS5_vEEv(ptr noundef nonnull align 8 dereferenceable(80) %0) unnamed_addr #4 comdat align 2 {
  %2 = alloca ptr, align 8
  store ptr %0, ptr %2, align 8, !tbaa !268
  %3 = load ptr, ptr %2, align 8
  %4 = getelementptr inbounds nuw %"class.std::stack", ptr %3, i32 0, i32 0
  call void @llvm.memset.p0.i64(ptr align 8 %4, i8 0, i64 80, i1 false)
  call void @_ZNSt5dequeIN10duckdb_re29WalkStateIiEESaIS2_EEC2Ev(ptr noundef nonnull align 8 dereferenceable(80) %4)
  ret void
}

; Function Attrs: mustprogress uwtable
define linkonce_odr hidden void @_ZN10duckdb_re26Regexp6WalkerIiEC2Ev(ptr noundef nonnull align 8 dereferenceable(96) %0) unnamed_addr #4 comdat align 2 {
  %2 = alloca ptr, align 8
  store ptr %0, ptr %2, align 8, !tbaa !121
  %3 = load ptr, ptr %2, align 8
  store ptr getelementptr inbounds inrange(-16, 48) ({ [8 x ptr] }, ptr @_ZTVN10duckdb_re26Regexp6WalkerIiEE, i32 0, i32 0, i32 2), ptr %3, align 8, !tbaa !25
  %4 = getelementptr inbounds nuw %"class.duckdb_re2::Regexp::Walker", ptr %3, i32 0, i32 1
  call void @_ZNSt5stackIN10duckdb_re29WalkStateIiEESt5dequeIS2_SaIS2_EEEC2IS5_vEEv(ptr noundef nonnull align 8 dereferenceable(80) %4)
  %5 = getelementptr inbounds nuw %"class.duckdb_re2::Regexp::Walker", ptr %3, i32 0, i32 2
  store i8 0, ptr %5, align 8, !tbaa !267
  ret void
}

; Function Attrs: mustprogress nounwind uwtable
define linkonce_odr hidden noundef ptr @_ZN10duckdb_re218CaptureNamesWalker7TakeMapB5cxx11Ev(ptr noundef nonnull align 8 dereferenceable(104) %0) #0 comdat align 2 {
  %2 = alloca ptr, align 8
  %3 = alloca ptr, align 8
  store ptr %0, ptr %2, align 8, !tbaa !130
  %4 = load ptr, ptr %2, align 8
  call void @llvm.lifetime.start.p0(i64 8, ptr %3) #18
  %5 = getelementptr inbounds nuw %"class.duckdb_re2::CaptureNamesWalker", ptr %4, i32 0, i32 1
  %6 = load ptr, ptr %5, align 8, !tbaa !132
  store ptr %6, ptr %3, align 8, !tbaa !135
  %7 = getelementptr inbounds nuw %"class.duckdb_re2::CaptureNamesWalker", ptr %4, i32 0, i32 1
  store ptr null, ptr %7, align 8, !tbaa !132
  %8 = load ptr, ptr %3, align 8, !tbaa !135
  call void @llvm.lifetime.end.p0(i64 8, ptr %3) #18
  ret ptr %8
}

; Function Attrs: mustprogress uwtable
define linkonce_odr hidden noundef i32 @_ZN10duckdb_re26Regexp6WalkerIiE4WalkEPS0_i(ptr noundef nonnull align 8 dereferenceable(96) %0, ptr noundef %1, i32 noundef %2) #4 comdat align 2 {
  %4 = alloca ptr, align 8
  %5 = alloca ptr, align 8
  %6 = alloca i32, align 4
  store ptr %0, ptr %4, align 8, !tbaa !121
  store ptr %1, ptr %5, align 8, !tbaa !3
  store i32 %2, ptr %6, align 4, !tbaa !29
  %7 = load ptr, ptr %4, align 8
  %8 = getelementptr inbounds nuw %"class.duckdb_re2::Regexp::Walker", ptr %7, i32 0, i32 3
  store i32 1000000, ptr %8, align 4, !tbaa !123
  %9 = load ptr, ptr %5, align 8, !tbaa !3
  %10 = load i32, ptr %6, align 4, !tbaa !29
  %11 = call noundef i32 @_ZN10duckdb_re26Regexp6WalkerIiE12WalkInternalEPS0_ib(ptr noundef nonnull align 8 dereferenceable(96) %7, ptr noundef %9, i32 noundef %10, i1 noundef zeroext true)
  ret i32 %11
}

; Function Attrs: mustprogress uwtable
define linkonce_odr hidden void @_ZN10duckdb_re218CaptureNamesWalkerC2Ev(ptr noundef nonnull align 8 dereferenceable(104) %0) unnamed_addr #4 comdat align 2 {
  %2 = alloca ptr, align 8
  store ptr %0, ptr %2, align 8, !tbaa !130
  %3 = load ptr, ptr %2, align 8
  call void @_ZN10duckdb_re26Regexp6WalkerIiEC2Ev(ptr noundef nonnull align 8 dereferenceable(96) %3)
  store ptr getelementptr inbounds inrange(-16, 48) ({ [8 x ptr] }, ptr @_ZTVN10duckdb_re218CaptureNamesWalkerE, i32 0, i32 0, i32 2), ptr %3, align 8, !tbaa !25
  %4 = getelementptr inbounds nuw %"class.duckdb_re2::CaptureNamesWalker", ptr %3, i32 0, i32 1
  store ptr null, ptr %4, align 8, !tbaa !132
  ret void
}

; Function Attrs: mustprogress uwtable
define hidden noundef ptr @_ZN10duckdb_re26Regexp12CaptureNamesB5cxx11Ev(ptr noundef nonnull align 8 dereferenceable(40) %0) #4 align 2 personality ptr @__gxx_personality_v0 {
  %2 = alloca ptr, align 8
  %3 = alloca %"class.duckdb_re2::CaptureNamesWalker", align 8
  %4 = alloca ptr, align 8
  %5 = alloca i32, align 4
  store ptr %0, ptr %2, align 8, !tbaa !3
  %6 = load ptr, ptr %2, align 8
  call void @llvm.lifetime.start.p0(i64 104, ptr %3) #18
  call void @_ZN10duckdb_re218CaptureNamesWalkerC2Ev(ptr noundef nonnull align 8 dereferenceable(104) %3)
  %7 = invoke noundef i32 @_ZN10duckdb_re26Regexp6WalkerIiE4WalkEPS0_i(ptr noundef nonnull align 8 dereferenceable(96) %3, ptr noundef %6, i32 noundef 0)
          to label %8 unwind label %11

8:                                                ; preds = %1
  %9 = invoke noundef ptr @_ZN10duckdb_re218CaptureNamesWalker7TakeMapB5cxx11Ev(ptr noundef nonnull align 8 dereferenceable(104) %3)
          to label %10 unwind label %11

10:                                               ; preds = %8
  call void @_ZN10duckdb_re218CaptureNamesWalkerD2Ev(ptr noundef nonnull align 8 dereferenceable(104) %3) #18
  call void @llvm.lifetime.end.p0(i64 104, ptr %3) #18
  ret ptr %9

11:                                               ; preds = %8, %1
  %12 = landingpad { ptr, i32 }
          cleanup
  %13 = extractvalue { ptr, i32 } %12, 0
  store ptr %13, ptr %4, align 8
  %14 = extractvalue { ptr, i32 } %12, 1
  store i32 %14, ptr %5, align 4
  call void @_ZN10duckdb_re218CaptureNamesWalkerD2Ev(ptr noundef nonnull align 8 dereferenceable(104) %3) #18
  call void @llvm.lifetime.end.p0(i64 104, ptr %3) #18
  br label %15

15:                                               ; preds = %11
  %16 = load ptr, ptr %4, align 8
  %17 = load i32, ptr %5, align 4
  %18 = insertvalue { ptr, i32 } poison, ptr %16, 0
  %19 = insertvalue { ptr, i32 } %18, i32 %17, 1
  resume { ptr, i32 } %19
}