; Function Attrs: mustprogress uwtable
define hidden noundef ptr @_ZN10duckdb_re26Regexp12CaptureNamesB5cxx11Ev(ptr noundef nonnull align 8 dereferenceable(40) %0) local_unnamed_addr #7 align 2 personality ptr @__gxx_personality_v0 {
  %2 = alloca %"class.duckdb_re2::CaptureNamesWalker", align 8
  call void @llvm.lifetime.start.p0(i64 104, ptr nonnull %2) #27
  store ptr getelementptr inbounds nuw inrange(-16, 48) (i8, ptr @_ZTVN10duckdb_re26Regexp6WalkerIiEE, i64 16), ptr %2, align 8, !tbaa !28
  %3 = getelementptr inbounds nuw i8, ptr %2, i64 8
  call void @llvm.memset.p0.i64(ptr noundef nonnull align 8 dereferenceable(80) %3, i8 0, i64 80, i1 false)
  call void @_ZNSt11_Deque_baseIN10duckdb_re29WalkStateIiEESaIS2_EE17_M_initialize_mapEm(ptr noundef nonnull align 8 dereferenceable(80) %3, i64 noundef 0)
  %4 = getelementptr inbounds nuw i8, ptr %2, i64 88
  store i8 0, ptr %4, align 8, !tbaa !84
  store ptr getelementptr inbounds nuw inrange(-16, 48) (i8, ptr @_ZTVN10duckdb_re218CaptureNamesWalkerE, i64 16), ptr %2, align 8, !tbaa !28
  %5 = getelementptr inbounds nuw i8, ptr %2, i64 96
  store ptr null, ptr %5, align 8, !tbaa !105
  %6 = getelementptr inbounds nuw i8, ptr %2, i64 92
  store i32 1000000, ptr %6, align 4, !tbaa !96
  %7 = invoke noundef i32 @_ZN10duckdb_re26Regexp6WalkerIiE12WalkInternalEPS0_ib(ptr noundef nonnull align 8 dereferenceable(96) %2, ptr noundef nonnull %0, i32 noundef 0, i1 noundef zeroext true)
          to label %_ZN10duckdb_re26Regexp6WalkerIiE4WalkEPS0_i.exit unwind label %9

_ZN10duckdb_re26Regexp6WalkerIiE4WalkEPS0_i.exit: ; preds = %1
  %8 = load ptr, ptr %5, align 8, !tbaa !105
  store ptr null, ptr %5, align 8, !tbaa !105
  call void @_ZN10duckdb_re218CaptureNamesWalkerD2Ev(ptr noundef nonnull align 8 dereferenceable(104) %2) #27
  call void @llvm.lifetime.end.p0(i64 104, ptr nonnull %2) #27
  ret ptr %8

9:                                                ; preds = %1
  %10 = landingpad { ptr, i32 }
          cleanup
  call void @_ZN10duckdb_re218CaptureNamesWalkerD2Ev(ptr noundef nonnull align 8 dereferenceable(104) %2) #27
  call void @llvm.lifetime.end.p0(i64 104, ptr nonnull %2) #27
  resume { ptr, i32 } %10
}